target datalayout = "e-m:e-p270:32:32-p271:32:32-p272:64:64-i64:64-i128:128-f80:128-n8:16:32:64-S128"
target triple = "x86_64-unknown-linux-gnu"

%"class.icu_75::UObject" = type { ptr }
%"class.icu_75::Normalizer2Impl" = type { %"class.icu_75::UObject", i16, i16, i16, i16, i16, i16, i16, i16, i16, i16, i16, i16, ptr, ptr, ptr, ptr, %"struct.icu_75::UInitOnce", ptr }
%"struct.icu_75::UInitOnce" = type { %"struct.std::atomic", i32 }
%"struct.std::atomic" = type { %"struct.std::__atomic_base" }
%"struct.std::__atomic_base" = type { i32 }

; Function Attrs: mustprogress nounwind uwtable
define void @_ZN6icu_7515Normalizer2Impl4initEPKiPK7UCPTriePKtPKh(ptr noundef nonnull align 8 dereferenceable(80) %this, ptr noundef %inIndexes, ptr noundef %inTrie, ptr noundef %inExtraData, ptr noundef %inSmallFCD) #2 align 2 {
entry:
  %this.addr = alloca ptr, align 8
  %inIndexes.addr = alloca ptr, align 8
  %inTrie.addr = alloca ptr, align 8
  %inExtraData.addr = alloca ptr, align 8
  %inSmallFCD.addr = alloca ptr, align 8
  store ptr %this, ptr %this.addr, align 8
  store ptr %inIndexes, ptr %inIndexes.addr, align 8
  store ptr %inTrie, ptr %inTrie.addr, align 8
  store ptr %inExtraData, ptr %inExtraData.addr, align 8
  store ptr %inSmallFCD, ptr %inSmallFCD.addr, align 8
  %this1 = load ptr, ptr %this.addr, align 8
  %0 = load ptr, ptr %inIndexes.addr, align 8
  %arrayidx = getelementptr inbounds i32, ptr %0, i64 8
  %1 = load i32, ptr %arrayidx, align 4
  %conv = trunc i32 %1 to i16
  %minDecompNoCP = getelementptr inbounds %"class.icu_75::Normalizer2Impl", ptr %this1, i32 0, i32 1
  store i16 %conv, ptr %minDecompNoCP, align 8
  %2 = load ptr, ptr %inIndexes.addr, align 8
  %arrayidx2 = getelementptr inbounds i32, ptr %2, i64 9
  %3 = load i32, ptr %arrayidx2, align 4
  %conv3 = trunc i32 %3 to i16
  %minCompNoMaybeCP = getelementptr inbounds %"class.icu_75::Normalizer2Impl", ptr %this1, i32 0, i32 2
  store i16 %conv3, ptr %minCompNoMaybeCP, align 2
  %4 = load ptr, ptr %inIndexes.addr, align 8
  %arrayidx4 = getelementptr inbounds i32, ptr %4, i64 18
  %5 = load i32, ptr %arrayidx4, align 4
  %conv5 = trunc i32 %5 to i16
  %minLcccCP = getelementptr inbounds %"class.icu_75::Normalizer2Impl", ptr %this1, i32 0, i32 3
  store i16 %conv5, ptr %minLcccCP, align 4
  %6 = load ptr, ptr %inIndexes.addr, align 8
  %arrayidx6 = getelementptr inbounds i32, ptr %6, i64 10
  %7 = load i32, ptr %arrayidx6, align 4
  %conv7 = trunc i32 %7 to i16
  %minYesNo = getelementptr inbounds %"class.icu_75::Normalizer2Impl", ptr %this1, i32 0, i32 4
  store i16 %conv7, ptr %minYesNo, align 2
  %8 = load ptr, ptr %inIndexes.addr, align 8
  %arrayidx8 = getelementptr inbounds i32, ptr %8, i64 14
  %9 = load i32, ptr %arrayidx8, align 4
  %conv9 = trunc i32 %9 to i16
  %minYesNoMappingsOnly = getelementptr inbounds %"class.icu_75::Normalizer2Impl", ptr %this1, i32 0, i32 5
  store i16 %conv9, ptr %minYesNoMappingsOnly, align 8
  %10 = load ptr, ptr %inIndexes.addr, align 8
  %arrayidx10 = getelementptr inbounds i32, ptr %10, i64 11
  %11 = load i32, ptr %arrayidx10, align 4
  %conv11 = trunc i32 %11 to i16
  %minNoNo = getelementptr inbounds %"class.icu_75::Normalizer2Impl", ptr %this1, i32 0, i32 6
  store i16 %conv11, ptr %minNoNo, align 2
  %12 = load ptr, ptr %inIndexes.addr, align 8
  %arrayidx12 = getelementptr inbounds i32, ptr %12, i64 15
  %13 = load i32, ptr %arrayidx12, align 4
  %conv13 = trunc i32 %13 to i16
  %minNoNoCompBoundaryBefore = getelementptr inbounds %"class.icu_75::Normalizer2Impl", ptr %this1, i32 0, i32 7
  store i16 %conv13, ptr %minNoNoCompBoundaryBefore, align 4
  %14 = load ptr, ptr %inIndexes.addr, align 8
  %arrayidx14 = getelementptr inbounds i32, ptr %14, i64 16
  %15 = load i32, ptr %arrayidx14, align 4
  %conv15 = trunc i32 %15 to i16
  %minNoNoCompNoMaybeCC = getelementptr inbounds %"class.icu_75::Normalizer2Impl", ptr %this1, i32 0, i32 8
  store i16 %conv15, ptr %minNoNoCompNoMaybeCC, align 2
  %16 = load ptr, ptr %inIndexes.addr, align 8
  %arrayidx16 = getelementptr inbounds i32, ptr %16, i64 17
  %17 = load i32, ptr %arrayidx16, align 4
  %conv17 = trunc i32 %17 to i16
  %minNoNoEmpty = getelementptr inbounds %"class.icu_75::Normalizer2Impl", ptr %this1, i32 0, i32 9
  store i16 %conv17, ptr %minNoNoEmpty, align 8
  %18 = load ptr, ptr %inIndexes.addr, align 8
  %arrayidx18 = getelementptr inbounds i32, ptr %18, i64 12
  %19 = load i32, ptr %arrayidx18, align 4
  %conv19 = trunc i32 %19 to i16
  %limitNoNo = getelementptr inbounds %"class.icu_75::Normalizer2Impl", ptr %this1, i32 0, i32 10
  store i16 %conv19, ptr %limitNoNo, align 2
  %20 = load ptr, ptr %inIndexes.addr, align 8
  %arrayidx20 = getelementptr inbounds i32, ptr %20, i64 13
  %21 = load i32, ptr %arrayidx20, align 4
  %conv21 = trunc i32 %21 to i16
  %minMaybeYes = getelementptr inbounds %"class.icu_75::Normalizer2Impl", ptr %this1, i32 0, i32 12
  store i16 %conv21, ptr %minMaybeYes, align 2
  %minMaybeYes22 = getelementptr inbounds %"class.icu_75::Normalizer2Impl", ptr %this1, i32 0, i32 12
  %22 = load i16, ptr %minMaybeYes22, align 2
  %conv23 = zext i16 %22 to i32
  %shr = ashr i32 %conv23, 3
  %sub = sub nsw i32 %shr, 64
  %sub24 = sub nsw i32 %sub, 1
  %conv25 = trunc i32 %sub24 to i16
  %centerNoNoDelta = getelementptr inbounds %"class.icu_75::Normalizer2Impl", ptr %this1, i32 0, i32 11
  store i16 %conv25, ptr %centerNoNoDelta, align 4
  %23 = load ptr, ptr %inTrie.addr, align 8
  %normTrie = getelementptr inbounds %"class.icu_75::Normalizer2Impl", ptr %this1, i32 0, i32 13
  store ptr %23, ptr %normTrie, align 8
  %24 = load ptr, ptr %inExtraData.addr, align 8
  %maybeYesCompositions = getelementptr inbounds %"class.icu_75::Normalizer2Impl", ptr %this1, i32 0, i32 14
  store ptr %24, ptr %maybeYesCompositions, align 8
  %maybeYesCompositions26 = getelementptr inbounds %"class.icu_75::Normalizer2Impl", ptr %this1, i32 0, i32 14
  %25 = load ptr, ptr %maybeYesCompositions26, align 8
  %minMaybeYes27 = getelementptr inbounds %"class.icu_75::Normalizer2Impl", ptr %this1, i32 0, i32 12
  %26 = load i16, ptr %minMaybeYes27, align 2
  %conv28 = zext i16 %26 to i32
  %sub29 = sub nsw i32 64512, %conv28
  %shr30 = ashr i32 %sub29, 1
  %idx.ext = sext i32 %shr30 to i64
  %add.ptr = getelementptr inbounds i16, ptr %25, i64 %idx.ext
  %extraData = getelementptr inbounds %"class.icu_75::Normalizer2Impl", ptr %this1, i32 0, i32 15
  store ptr %add.ptr, ptr %extraData, align 8
  %27 = load ptr, ptr %inSmallFCD.addr, align 8
  %smallFCD = getelementptr inbounds %"class.icu_75::Normalizer2Impl", ptr %this1, i32 0, i32 16
  store ptr %27, ptr %smallFCD, align 8
  ret void
}