; Function Attrs: mustprogress nofree norecurse nosync nounwind willreturn memory(argmem: readwrite) uwtable
define void @_ZN6icu_7515Normalizer2Impl4initEPKiPK7UCPTriePKtPKh(ptr nocapture noundef nonnull writeonly align 8 dereferenceable(80) %this, ptr nocapture noundef readonly %inIndexes, ptr noundef %inTrie, ptr noundef %inExtraData, ptr noundef %inSmallFCD) local_unnamed_addr #6 align 2 {
entry:
  %arrayidx = getelementptr inbounds i8, ptr %inIndexes, i64 32
  %0 = load i32, ptr %arrayidx, align 4
  %conv = trunc i32 %0 to i16
  %minDecompNoCP = getelementptr inbounds i8, ptr %this, i64 8
  store i16 %conv, ptr %minDecompNoCP, align 8
  %arrayidx2 = getelementptr inbounds i8, ptr %inIndexes, i64 36
  %1 = load i32, ptr %arrayidx2, align 4
  %conv3 = trunc i32 %1 to i16
  %minCompNoMaybeCP = getelementptr inbounds i8, ptr %this, i64 10
  store i16 %conv3, ptr %minCompNoMaybeCP, align 2
  %arrayidx4 = getelementptr inbounds i8, ptr %inIndexes, i64 72
  %2 = load i32, ptr %arrayidx4, align 4
  %conv5 = trunc i32 %2 to i16
  %minLcccCP = getelementptr inbounds i8, ptr %this, i64 12
  store i16 %conv5, ptr %minLcccCP, align 4
  %arrayidx6 = getelementptr inbounds i8, ptr %inIndexes, i64 40
  %3 = load i32, ptr %arrayidx6, align 4
  %conv7 = trunc i32 %3 to i16
  %minYesNo = getelementptr inbounds i8, ptr %this, i64 14
  store i16 %conv7, ptr %minYesNo, align 2
  %arrayidx8 = getelementptr inbounds i8, ptr %inIndexes, i64 56
  %4 = load i32, ptr %arrayidx8, align 4
  %conv9 = trunc i32 %4 to i16
  %minYesNoMappingsOnly = getelementptr inbounds i8, ptr %this, i64 16
  store i16 %conv9, ptr %minYesNoMappingsOnly, align 8
  %arrayidx10 = getelementptr inbounds i8, ptr %inIndexes, i64 44
  %5 = load i32, ptr %arrayidx10, align 4
  %conv11 = trunc i32 %5 to i16
  %minNoNo = getelementptr inbounds i8, ptr %this, i64 18
  store i16 %conv11, ptr %minNoNo, align 2
  %arrayidx12 = getelementptr inbounds i8, ptr %inIndexes, i64 60
  %6 = load i32, ptr %arrayidx12, align 4
  %conv13 = trunc i32 %6 to i16
  %minNoNoCompBoundaryBefore = getelementptr inbounds i8, ptr %this, i64 20
  store i16 %conv13, ptr %minNoNoCompBoundaryBefore, align 4
  %arrayidx14 = getelementptr inbounds i8, ptr %inIndexes, i64 64
  %7 = load i32, ptr %arrayidx14, align 4
  %conv15 = trunc i32 %7 to i16
  %minNoNoCompNoMaybeCC = getelementptr inbounds i8, ptr %this, i64 22
  store i16 %conv15, ptr %minNoNoCompNoMaybeCC, align 2
  %arrayidx16 = getelementptr inbounds i8, ptr %inIndexes, i64 68
  %8 = load i32, ptr %arrayidx16, align 4
  %conv17 = trunc i32 %8 to i16
  %minNoNoEmpty = getelementptr inbounds i8, ptr %this, i64 24
  store i16 %conv17, ptr %minNoNoEmpty, align 8
  %arrayidx18 = getelementptr inbounds i8, ptr %inIndexes, i64 48
  %9 = load i32, ptr %arrayidx18, align 4
  %conv19 = trunc i32 %9 to i16
  %limitNoNo = getelementptr inbounds i8, ptr %this, i64 26
  store i16 %conv19, ptr %limitNoNo, align 2
  %arrayidx20 = getelementptr inbounds i8, ptr %inIndexes, i64 52
  %10 = load i32, ptr %arrayidx20, align 4
  %conv21 = trunc i32 %10 to i16
  %minMaybeYes = getelementptr inbounds i8, ptr %this, i64 30
  store i16 %conv21, ptr %minMaybeYes, align 2
  %11 = lshr i16 %conv21, 3
  %conv25 = add nsw i16 %11, -65
  %centerNoNoDelta = getelementptr inbounds i8, ptr %this, i64 28
  store i16 %conv25, ptr %centerNoNoDelta, align 4
  %normTrie = getelementptr inbounds i8, ptr %this, i64 32
  store ptr %inTrie, ptr %normTrie, align 8
  %maybeYesCompositions = getelementptr inbounds i8, ptr %this, i64 40
  store ptr %inExtraData, ptr %maybeYesCompositions, align 8
  %conv28 = and i32 %10, 65535
  %sub29 = sub nsw i32 64512, %conv28
  %shr30 = ashr i32 %sub29, 1
  %idx.ext = sext i32 %shr30 to i64
  %add.ptr = getelementptr inbounds i16, ptr %inExtraData, i64 %idx.ext
  %extraData = getelementptr inbounds i8, ptr %this, i64 48
  store ptr %add.ptr, ptr %extraData, align 8
  %smallFCD = getelementptr inbounds i8, ptr %this, i64 56
  store ptr %inSmallFCD, ptr %smallFCD, align 8
  ret void
}